target datalayout = "e-m:e-p270:32:32-p271:32:32-p272:64:64-i64:64-i128:128-f80:128-n8:16:32:64-S128"
target triple = "x86_64-pc-linux-gnu"

%struct.SDL_AudioDriver = type { ptr, ptr, %struct.SDL_AudioDriverImpl, ptr, ptr, ptr, i32, i32, %struct.SDL_PendingAudioDeviceEvent, ptr, %struct.SDL_AtomicInt, %struct.SDL_AtomicInt, %struct.SDL_AtomicInt }
%struct.SDL_AudioDriverImpl = type { ptr, ptr, ptr, ptr, ptr, ptr, ptr, ptr, ptr, ptr, ptr, ptr, ptr, ptr, i8, i8, i8, i8 }
%struct.SDL_PendingAudioDeviceEvent = type { i32, i32, ptr }
%struct.SDL_AtomicInt = type { i32 }
%struct.SDL_AudioSpec = type { i32, i32, i32 }
%struct.SDL_AudioDevice = type { ptr, ptr, %struct.SDL_AtomicInt, ptr, ptr, ptr, ptr, ptr, ptr, ptr, i32, ptr, %struct.SDL_AudioSpec, i32, ptr, %struct.SDL_AudioSpec, i32, i32, %struct.SDL_AtomicInt, %struct.SDL_AtomicInt, i8, i8, ptr, ptr, ptr, i32, ptr, i8, ptr, ptr }

@current_audio = internal global %struct.SDL_AudioDriver zeroinitializer, align 8

; Function Attrs: nounwind uwtable
define hidden i32 @SDL_GetSilenceValueForFormat_REAL(i32 noundef %0) #0 {
  %2 = alloca i32, align 4
  store i32 %0, ptr %2, align 4
  %3 = load i32, ptr %2, align 4
  %4 = icmp eq i32 %3, 8
  %5 = select i1 %4, i32 128, i32 0
  ret i32 %5
}

; Function Attrs: nounwind uwtable
define internal void @SerializePhysicalDeviceClose(ptr noundef %0) #0 {
  %2 = alloca ptr, align 8
  store ptr %0, ptr %2, align 8
  br label %3

3:                                                ; preds = %8, %1
  %4 = load ptr, ptr %2, align 8
  %5 = getelementptr inbounds nuw %struct.SDL_AudioDevice, ptr %4, i32 0, i32 18
  %6 = call i32 @SDL_GetAtomicInt_REAL(ptr noundef %5)
  %7 = icmp ne i32 %6, 0
  br i1 %7, label %8, label %15

8:                                                ; preds = %3
  %9 = load ptr, ptr %2, align 8
  %10 = getelementptr inbounds nuw %struct.SDL_AudioDevice, ptr %9, i32 0, i32 1
  %11 = load ptr, ptr %10, align 8
  %12 = load ptr, ptr %2, align 8
  %13 = getelementptr inbounds nuw %struct.SDL_AudioDevice, ptr %12, i32 0, i32 0
  %14 = load ptr, ptr %13, align 8
  call void @SDL_WaitCondition_REAL(ptr noundef %11, ptr noundef %14)
  br label %3, !llvm.loop !34

15:                                               ; preds = %3
  ret void
}

; Function Attrs: nounwind uwtable
define internal void @ClosePhysicalAudioDevice(ptr noundef %0) #0 {
  %2 = alloca ptr, align 8
  store ptr %0, ptr %2, align 8
  %3 = load ptr, ptr %2, align 8
  call void @SerializePhysicalDeviceClose(ptr noundef %3)
  %4 = load ptr, ptr %2, align 8
  %5 = getelementptr inbounds nuw %struct.SDL_AudioDevice, ptr %4, i32 0, i32 18
  %6 = call i32 @SDL_SetAtomicInt_REAL(ptr noundef %5, i32 noundef 1)
  %7 = load ptr, ptr %2, align 8
  %8 = getelementptr inbounds nuw %struct.SDL_AudioDevice, ptr %7, i32 0, i32 0
  %9 = load ptr, ptr %8, align 8
  call void @SDL_UnlockMutex_REAL(ptr noundef %9)
  %10 = load ptr, ptr %2, align 8
  %11 = getelementptr inbounds nuw %struct.SDL_AudioDevice, ptr %10, i32 0, i32 26
  %12 = load ptr, ptr %11, align 8
  %13 = icmp ne ptr %12, null
  br i1 %13, label %14, label %20

14:                                               ; preds = %1
  %15 = load ptr, ptr %2, align 8
  %16 = getelementptr inbounds nuw %struct.SDL_AudioDevice, ptr %15, i32 0, i32 26
  %17 = load ptr, ptr %16, align 8
  call void @SDL_WaitThread_REAL(ptr noundef %17, ptr noundef null)
  %18 = load ptr, ptr %2, align 8
  %19 = getelementptr inbounds nuw %struct.SDL_AudioDevice, ptr %18, i32 0, i32 26
  store ptr null, ptr %19, align 8
  br label %20

20:                                               ; preds = %14, %1
  %21 = load ptr, ptr %2, align 8
  %22 = getelementptr inbounds nuw %struct.SDL_AudioDevice, ptr %21, i32 0, i32 27
  %23 = load i8, ptr %22, align 8, !range !5, !noundef !6
  %24 = trunc i8 %23 to i1
  br i1 %24, label %25, label %32

25:                                               ; preds = %20
  %26 = load ptr, ptr getelementptr inbounds nuw (%struct.SDL_AudioDriverImpl, ptr getelementptr inbounds nuw (%struct.SDL_AudioDriver, ptr @current_audio, i32 0, i32 2), i32 0, i32 10), align 8
  %27 = load ptr, ptr %2, align 8
  call void %26(ptr noundef %27)
  %28 = load ptr, ptr %2, align 8
  %29 = getelementptr inbounds nuw %struct.SDL_AudioDevice, ptr %28, i32 0, i32 27
  store i8 0, ptr %29, align 8
  %30 = load ptr, ptr %2, align 8
  %31 = getelementptr inbounds nuw %struct.SDL_AudioDevice, ptr %30, i32 0, i32 28
  store ptr null, ptr %31, align 8
  br label %32

32:                                               ; preds = %25, %20
  %33 = load ptr, ptr %2, align 8
  %34 = getelementptr inbounds nuw %struct.SDL_AudioDevice, ptr %33, i32 0, i32 0
  %35 = load ptr, ptr %34, align 8
  call void @SDL_LockMutex_REAL(ptr noundef %35)
  %36 = load ptr, ptr %2, align 8
  %37 = getelementptr inbounds nuw %struct.SDL_AudioDevice, ptr %36, i32 0, i32 18
  %38 = call i32 @SDL_SetAtomicInt_REAL(ptr noundef %37, i32 noundef 0)
  %39 = load ptr, ptr %2, align 8
  %40 = getelementptr inbounds nuw %struct.SDL_AudioDevice, ptr %39, i32 0, i32 1
  %41 = load ptr, ptr %40, align 8
  call void @SDL_BroadcastCondition_REAL(ptr noundef %41)
  %42 = load ptr, ptr %2, align 8
  %43 = getelementptr inbounds nuw %struct.SDL_AudioDevice, ptr %42, i32 0, i32 22
  %44 = load ptr, ptr %43, align 8
  call void @SDL_aligned_free_REAL(ptr noundef %44)
  %45 = load ptr, ptr %2, align 8
  %46 = getelementptr inbounds nuw %struct.SDL_AudioDevice, ptr %45, i32 0, i32 22
  store ptr null, ptr %46, align 8
  %47 = load ptr, ptr %2, align 8
  %48 = getelementptr inbounds nuw %struct.SDL_AudioDevice, ptr %47, i32 0, i32 23
  %49 = load ptr, ptr %48, align 8
  call void @SDL_aligned_free_REAL(ptr noundef %49)
  %50 = load ptr, ptr %2, align 8
  %51 = getelementptr inbounds nuw %struct.SDL_AudioDevice, ptr %50, i32 0, i32 23
  store ptr null, ptr %51, align 8
  %52 = load ptr, ptr %2, align 8
  %53 = getelementptr inbounds nuw %struct.SDL_AudioDevice, ptr %52, i32 0, i32 24
  %54 = load ptr, ptr %53, align 8
  call void @SDL_aligned_free_REAL(ptr noundef %54)
  %55 = load ptr, ptr %2, align 8
  %56 = getelementptr inbounds nuw %struct.SDL_AudioDevice, ptr %55, i32 0, i32 24
  store ptr null, ptr %56, align 8
  %57 = load ptr, ptr %2, align 8
  %58 = getelementptr inbounds nuw %struct.SDL_AudioDevice, ptr %57, i32 0, i32 12
  %59 = load ptr, ptr %2, align 8
  %60 = getelementptr inbounds nuw %struct.SDL_AudioDevice, ptr %59, i32 0, i32 15
  call void @llvm.memcpy.p0.p0.i64(ptr align 8 %58, ptr align 8 %60, i64 12, i1 false)
  %61 = load ptr, ptr %2, align 8
  %62 = getelementptr inbounds nuw %struct.SDL_AudioDevice, ptr %61, i32 0, i32 16
  store i32 0, ptr %62, align 4
  %63 = load ptr, ptr %2, align 8
  %64 = getelementptr inbounds nuw %struct.SDL_AudioDevice, ptr %63, i32 0, i32 12
  %65 = getelementptr inbounds nuw %struct.SDL_AudioSpec, ptr %64, i32 0, i32 0
  %66 = load i32, ptr %65, align 8
  %67 = call i32 @SDL_GetSilenceValueForFormat_REAL(i32 noundef %66)
  %68 = load ptr, ptr %2, align 8
  %69 = getelementptr inbounds nuw %struct.SDL_AudioDevice, ptr %68, i32 0, i32 17
  store i32 %67, ptr %69, align 8
  ret void
}