; Function Attrs: nounwind uwtable
define internal fastcc void @ClosePhysicalAudioDevice(ptr noundef %0) unnamed_addr #0 {
  %2 = getelementptr inbounds nuw i8, ptr %0, i64 140
  %3 = tail call i32 @SDL_GetAtomicInt_REAL(ptr noundef nonnull %2) #14
  %.not3.i = icmp eq i32 %3, 0
  br i1 %.not3.i, label %SerializePhysicalDeviceClose.exit, label %.lr.ph.i

.lr.ph.i:                                         ; preds = %1
  %4 = getelementptr inbounds nuw i8, ptr %0, i64 8
  br label %5

5:                                                ; preds = %5, %.lr.ph.i
  %6 = load ptr, ptr %4, align 8
  %7 = load ptr, ptr %0, align 8
  tail call void @SDL_WaitCondition_REAL(ptr noundef %6, ptr noundef %7) #14
  %8 = tail call i32 @SDL_GetAtomicInt_REAL(ptr noundef nonnull %2) #14
  %.not.i = icmp eq i32 %8, 0
  br i1 %.not.i, label %SerializePhysicalDeviceClose.exit, label %5, !llvm.loop !19

SerializePhysicalDeviceClose.exit:                ; preds = %5, %1
  %9 = tail call i32 @SDL_SetAtomicInt_REAL(ptr noundef nonnull %2, i32 noundef 1) #14
  %10 = load ptr, ptr %0, align 8
  tail call void @SDL_UnlockMutex_REAL(ptr noundef %10) #14
  %11 = getelementptr inbounds nuw i8, ptr %0, i64 184
  %12 = load ptr, ptr %11, align 8
  %.not = icmp eq ptr %12, null
  br i1 %.not, label %14, label %13

13:                                               ; preds = %SerializePhysicalDeviceClose.exit
  tail call void @SDL_WaitThread_REAL(ptr noundef nonnull %12, ptr noundef null) #14
  store ptr null, ptr %11, align 8
  br label %14

14:                                               ; preds = %13, %SerializePhysicalDeviceClose.exit
  %15 = getelementptr inbounds nuw i8, ptr %0, i64 192
  %16 = load i8, ptr %15, align 8, !range !6, !noundef !7
  %17 = trunc nuw i8 %16 to i1
  br i1 %17, label %18, label %21

18:                                               ; preds = %14
  %19 = load ptr, ptr getelementptr inbounds nuw (i8, ptr @current_audio, i64 96), align 8
  tail call void %19(ptr noundef nonnull %0) #14
  store i8 0, ptr %15, align 8
  %20 = getelementptr inbounds nuw i8, ptr %0, i64 200
  store ptr null, ptr %20, align 8
  br label %21

21:                                               ; preds = %18, %14
  %22 = load ptr, ptr %0, align 8
  tail call void @SDL_LockMutex_REAL(ptr noundef %22) #14
  %23 = tail call i32 @SDL_SetAtomicInt_REAL(ptr noundef nonnull %2, i32 noundef 0) #14
  %24 = getelementptr inbounds nuw i8, ptr %0, i64 8
  %25 = load ptr, ptr %24, align 8
  tail call void @SDL_BroadcastCondition_REAL(ptr noundef %25) #14
  %26 = getelementptr inbounds nuw i8, ptr %0, i64 152
  %27 = load ptr, ptr %26, align 8
  tail call void @SDL_aligned_free_REAL(ptr noundef %27) #14
  store ptr null, ptr %26, align 8
  %28 = getelementptr inbounds nuw i8, ptr %0, i64 160
  %29 = load ptr, ptr %28, align 8
  tail call void @SDL_aligned_free_REAL(ptr noundef %29) #14
  store ptr null, ptr %28, align 8
  %30 = getelementptr inbounds nuw i8, ptr %0, i64 168
  %31 = load ptr, ptr %30, align 8
  tail call void @SDL_aligned_free_REAL(ptr noundef %31) #14
  store ptr null, ptr %30, align 8
  %32 = getelementptr inbounds nuw i8, ptr %0, i64 96
  %33 = getelementptr inbounds nuw i8, ptr %0, i64 120
  tail call void @llvm.memcpy.p0.p0.i64(ptr noundef nonnull align 8 dereferenceable(12) %32, ptr noundef nonnull align 8 dereferenceable(12) %33, i64 12, i1 false)
  %34 = getelementptr inbounds nuw i8, ptr %0, i64 132
  store i32 0, ptr %34, align 4
  %35 = load i32, ptr %32, align 8
  %36 = icmp eq i32 %35, 8
  %37 = select i1 %36, i32 128, i32 0
  %38 = getelementptr inbounds nuw i8, ptr %0, i64 136
  store i32 %37, ptr %38, align 8
  ret void
}